(dp0
S'Automotive Sales and Repair Services'
p1
I12
sS'Law Enforcement   '
p2
I72
sS'Biotechnology   '
p3
I17
sS'Human Resources'
p4
I64
sS'Health, Wellness and Fitness   '
p5
I60
sS'Cosmetics   '
p6
I37
sS'Animation   '
p7
I8
sS'Motion Pictures and Film   '
p8
I92
sS'Graphic Design   '
p9
I59
sS'Public Policy   '
p10
I113
sS'Renewables and Environment   '
p11
I119
sS'Business '
p12
I20
sS'Tourism/Travel'
p13
I134
sS'Manufacturing/Production/Operations'
p14
I81
sS'Travel, Transportation and Tourism'
p15
I137
sS'Information Technology Services   '
p16
I68
sS'Accounting/Finance/Insurance'
p17
I1
sS'Restaurant/Food Services'
p18
I122
sS'Computer Networking   '
p19
I28
sS'Computer Hardware'
p20
I27
sS'Media Production   '
p21
I86
sS'Real Estate/Property Management'
p22
I116
sS'Business Supplies and Equipment   '
p23
I22
sS'Public Relations and Communications   '
p24
I114
sS'Market Research   '
p25
I83
sS'Internet Services'
p26
I71
sS'Sales/Retail/Business Development'
p27
I124
sS'Research'
p28
I120
sS'Clothing and Textile Manufacturing'
p29
I25
sS'Plastics   '
p30
I108
sS'Fashion'
p31
I52
sS'Biotech/R&D/Science'
p32
I16
sS'Sports and Physical Recreation'
p33
I129
sS'Higher Education   '
p34
I62
sS'Computer Games   '
p35
I26
sS'Installation/Maintenance/Repair'
p36
I69
sS'Select'
p37
I126
sS'Pharmaceutical'
p38
I105
sS'Management'
p39
I78
sS'Wholesale Trade'
p40
I142
sS'Broadcasting, Music, and Film'
p41
I18
sS'Mining and Metals   '
p42
I91
sS'Arts and Crafts   '
p43
I11
sS'Nanotechnology   '
p44
I94
sS'Legal'
p45
I73
sS'Medical Devices and Supplies'
p46
I89
sS'Hotels and Lodging'
p47
I63
sS'Nonprofit Charitable Organizations'
p48
I95
sS'Textiles   '
p49
I133
sS'Performing and Fine Arts'
p50
I103
sS'Paper and Forest Products   '
p51
I102
sS'Accounting and Auditing Services'
p52
I0
sS'Supermarkets   '
p53
I131
sS'Customer Service/Support'
p54
I39
sS'Computer/IT Services'
p55
I31
sS'Capital Markets   '
p56
I23
sS'Creative/Design'
p57
I38
sS'Recreational Facilities and Services   '
p58
I117
sS'Other - Not Classified'
p59
I98
sS'Personal and Household Services'
p60
I104
sS'Professional Training and Coaching   '
p61
I111
sS'Transportation/Trucking/Railroad   '
p62
I136
sS'Construction - Industrial Facilities and Infrastructure'
p63
I32
sS'Dairy   '
p64
I40
sS'Healthcare Services and Hospital'
p65
I61
sS'Security and Surveillance'
p66
I125
sS'Human Resources   '
p67
I65
sS'Quality Assurance/Quality Control'
p68
I115
sS'Education'
p69
I42
sS'Packaging and Containers   '
p70
I101
sS'Import and Export   '
p71
I67
sS'Engineering Services'
p72
I48
sS'Engineering - Mechanical or Industrial   '
p73
I47
sS'Entertainment   '
p74
I49
sS'Airlines/Aviation   '
p75
I6
sS'Package/Freight Delivery   '
p76
I100
sS'Food Services/Hospitality'
p77
I55
sS'Administration'
p78
I2
sS'Logistics/Transportation'
p79
I76
sS'Electronics, Components, and Semiconductor Mfg'
p80
I44
sS'Legal Services'
p81
I74
sS'Education/Training'
p82
I43
sS'Consumer Electronics   '
p83
I34
sS'Telecommunications Services'
p84
I132
sS'Translation and Localization   '
p85
I135
sS'Alternative Medicine   '
p86
I7
sS'Marketing and Advertising   '
p87
I85
sS'Primary/Secondary Education   '
p88
I109
sS'Consumer Services   '
p89
I36
sS'Computer Software'
p90
I29
sS'Retail'
p91
I123
sS'Luxury Goods and Jewelry   '
p92
I77
sS'Logistics and Supply Chain   '
p93
I75
sS'Government and Military'
p94
I58
sS'Online Media   '
p95
I97
sS'Banking'
p96
I15
sS'Photography   '
p97
I107
sS'Research   '
p98
I121
sS'Building Construction/Skilled Trades'
p99
I19
sS'Pharmaceuticals   '
p100
I106
sS'Outsourcing/Offshoring   '
p101
I99
sS'Furniture   '
p102
I57
sS'Venture Capital and Private Equity   '
p103
I138
sS'Marine Manufacturing & Services'
p104
I82
sS'Semiconductors   '
p105
I127
sS'Engineering'
p106
I46
sS'Energy and Utilities'
p107
I45
sS'Computer and Network Security   '
p108
I30
sS'Printing and Publishing'
p109
I110
sS'Insurance'
p110
I70
sS'Wireless   '
p111
I143
sS'Music   '
p112
I93
sS'Aviation and Aerospace   '
p113
I14
sS'Food and Beverage Production'
p114
I56
sS'Staffing and Recruiting   '
p115
I130
sS'Marketing'
p116
I84
sS'Waste Management'
p117
I141
sS'Business Services - Other'
p118
I21
sS'Fine Art   '
p119
I54
sS'Writing and Editing'
p120
I144
sS'Veterinary   '
p121
I139
sS'Manufacturing'
p122
I80
sS'Architectural and Design Services'
p123
I10
sS'Aerospace and Defense'
p124
I4
sS'Agriculture/Forestry/Fishing/Farming'
p125
I5
sS'Construction - Residential & Commercial/Office'
p126
I33
sS'Project/Program Management'
p127
I112
sS'Media/Journalism/Publishing'
p128
I87
sS'Medical'
p129
I88
sS'Advertising and PR Services'
p130
I3
sS'Automotive and Parts Manufacturing'
p131
I13
sS'Management Consulting Services'
p132
I79
sS'FMCG'
p133
I51
sS'Military   '
p134
I90
sS'Chemicals/Petro-Chemicals'
p135
I24
sS'Editorial/Writing'
p136
I41
sS'Consumer Packaged Goods Manufacturing'
p137
I35
sS'Warehousing   '
p138
I140
sS'Religious Institutions   '
p139
I118
sS'Financial Services'
p140
I53
sS'IT/Software Development'
p141
I66
sS'Apparel and Fashion   '
p142
I9
sS'Environmental Services   '
p143
I50
sS'Oil and Energy   '
p144
I96
sS'Sports and Leisure'
p145
I128
s.